; Function Attrs: mustprogress nofree norecurse nosync nounwind willreturn memory(argmem: readwrite) uwtable
define hidden void @_ZN7datalog12mk_backwardsC2ERNS_7contextEj(ptr nocapture noundef nonnull writeonly align 8 dereferenceable(40) %this, ptr noundef nonnull align 8 dereferenceable(3556) %ctx, i32 noundef %priority) unnamed_addr #3 align 2 personality ptr @__gxx_personality_v0 {
entry:
  %m_priority.i = getelementptr inbounds i8, ptr %this, i64 8
  store i32 %priority, ptr %m_priority.i, align 8
  %m_can_destratify_negation.i = getelementptr inbounds i8, ptr %this, i64 12
  store i8 0, ptr %m_can_destratify_negation.i, align 4
  %m_transformer.i = getelementptr inbounds i8, ptr %this, i64 16
  store ptr null, ptr %m_transformer.i, align 8
  store ptr getelementptr inbounds ({ [6 x ptr] }, ptr @_ZTVN7datalog12mk_backwardsE, i64 0, i32 0, i64 2), ptr %this, align 8
  %m = getelementptr inbounds i8, ptr %this, i64 24
  %0 = load ptr, ptr %ctx, align 8
  store ptr %0, ptr %m, align 8
  %m_ctx = getelementptr inbounds i8, ptr %this, i64 32
  store ptr %ctx, ptr %m_ctx, align 8
  ret void
}